; Function Attrs: nounwind uwtable
define ptr @l_Lake_BuildStore_collectModuleFacetMap___rarg___boxed(ptr noundef %0, ptr noundef %1, ptr readnone captures(none) %2) #0 {
  %4 = tail call ptr @l_Lean_RBNode_forIn_visit___at_Lake_BuildStore_collectModuleFacetMap___spec__1___rarg(ptr noundef %1, ptr noundef %0, ptr noundef nonnull inttoptr (i64 1 to ptr))
  %5 = getelementptr inbounds nuw i8, ptr %4, i64 8
  %6 = load ptr, ptr %5, align 8, !tbaa !9
  %7 = ptrtoint ptr %6 to i64
  %8 = and i64 %7, 1
  %.not.i5 = icmp eq i64 %8, 0
  br i1 %.not.i5, label %9, label %lean_inc.exit.i

9:                                                ; preds = %3
  %.val.i.i = load i32, ptr %6, align 4, !tbaa !4
  %10 = icmp sgt i32 %.val.i.i, 0
  br i1 %10, label %11, label %13, !prof !11

11:                                               ; preds = %9
  %12 = add nuw i32 %.val.i.i, 1
  store i32 %12, ptr %6, align 4, !tbaa !4
  br label %lean_inc.exit.i

13:                                               ; preds = %9
  %.not.i7.i = icmp eq i32 %.val.i.i, 0
  br i1 %.not.i7.i, label %lean_inc.exit.i, label %14

14:                                               ; preds = %13
  tail call void @lean_inc_ref_cold(ptr noundef nonnull %6) #3
  br label %lean_inc.exit.i

lean_inc.exit.i:                                  ; preds = %14, %13, %11, %3
  %15 = ptrtoint ptr %4 to i64
  %16 = and i64 %15, 1
  %.not8.i = icmp eq i64 %16, 0
  br i1 %.not8.i, label %17, label %l_Lake_BuildStore_collectModuleFacetMap___rarg.exit

17:                                               ; preds = %lean_inc.exit.i
  %18 = load i32, ptr %4, align 4, !tbaa !4
  %19 = icmp sgt i32 %18, 1
  br i1 %19, label %20, label %22, !prof !11

20:                                               ; preds = %17
  %21 = add nsw i32 %18, -1
  store i32 %21, ptr %4, align 4, !tbaa !4
  br label %l_Lake_BuildStore_collectModuleFacetMap___rarg.exit

22:                                               ; preds = %17
  %.not.i.i = icmp eq i32 %18, 0
  br i1 %.not.i.i, label %l_Lake_BuildStore_collectModuleFacetMap___rarg.exit, label %23

23:                                               ; preds = %22
  tail call void @lean_dec_ref_cold(ptr noundef nonnull %4) #3
  br label %l_Lake_BuildStore_collectModuleFacetMap___rarg.exit

l_Lake_BuildStore_collectModuleFacetMap___rarg.exit: ; preds = %lean_inc.exit.i, %20, %22, %23
  %24 = ptrtoint ptr %1 to i64
  %25 = and i64 %24, 1
  %.not = icmp eq i64 %25, 0
  br i1 %.not, label %26, label %lean_dec.exit

26:                                               ; preds = %l_Lake_BuildStore_collectModuleFacetMap___rarg.exit
  %27 = load i32, ptr %1, align 4, !tbaa !4
  %28 = icmp sgt i32 %27, 1
  br i1 %28, label %29, label %31, !prof !11

29:                                               ; preds = %26
  %30 = add nsw i32 %27, -1
  store i32 %30, ptr %1, align 4, !tbaa !4
  br label %lean_dec.exit

31:                                               ; preds = %26
  %.not.i = icmp eq i32 %27, 0
  br i1 %.not.i, label %lean_dec.exit, label %32

32:                                               ; preds = %31
  tail call void @lean_dec_ref_cold(ptr noundef nonnull %1) #3
  br label %lean_dec.exit

lean_dec.exit:                                    ; preds = %32, %31, %29, %l_Lake_BuildStore_collectModuleFacetMap___rarg.exit
  ret ptr %6
}